00007C00  E90101            jmp word 0x7d04
00007C03  0000              add [bx+si],al
00007C05  0000              add [bx+si],al
00007C07  0000              add [bx+si],al
00007C09  0000              add [bx+si],al
00007C0B  00FF              add bh,bh
00007C0D  FF00              inc word [bx+si]
00007C0F  0000              add [bx+si],al
00007C11  92                xchg ax,dx
00007C12  0000              add [bx+si],al
00007C14  DE00              fiadd word [bx+si]
00007C16  0000              add [bx+si],al
00007C18  00984000          add [bx+si+0x40],bl
00007C1C  FF                db 0xff
00007C1D  FF00              inc word [bx+si]
00007C1F  0000              add [bx+si],al
00007C21  98                cbw
00007C22  0000              add [bx+si],al
00007C24  3400              xor al,0x0
00007C26  0000              add [bx+si],al
00007C28  00920000          add [bp+si+0x0],dl
00007C2C  7F00              jg 0x7c2e
00007C2E  0000              add [bx+si],al
00007C30  00934000          add [bp+di+0x40],dl
00007C34  FF                db 0xff
00007C35  FF00              inc word [bx+si]
00007C37  0005              add [di],al
00007C39  92                xchg ax,dx
00007C3A  0000              add [bx+si],al
00007C3C  FF                db 0xff
00007C3D  FF00              inc word [bx+si]
00007C3F  800B92            or byte [bp+di],0x92
00007C42  0000              add [bx+si],al
00007C44  3F                aas
00007C45  0000              add [bx+si],al
00007C47  0000              add [bx+si],al
00007C49  0000              add [bx+si],al
00007C4B  0000              add [bx+si],al
00007C4D  00496E            add [bx+di+0x6e],cl
00007C50  207072            and [bx+si+0x72],dh
00007C53  6F                outsw
00007C54  7465              jz 0x7cbb
00007C56  637420            arpl [si+0x20],si
00007C59  6D                insw
00007C5A  6F                outsw
00007C5B  6465206E6F        and [gs:bp+0x6f],ch
00007C60  7720              ja 0x7c82
00007C62  5E                pop si
00007C63  5F                pop di
00007C64  5E                pop si
00007C65  004142            add [bx+di+0x42],al
00007C68  43                inc bx
00007C69  44                inc sp
00007C6A  45                inc bp
00007C6B  46                inc si
00007C6C  47                inc di
00007C6D  48                dec ax
00007C6E  49                dec cx
00007C6F  4A                dec dx
00007C70  4B                dec bx
00007C71  4C                dec sp
00007C72  4D                dec bp
00007C73  4E                dec si
00007C74  4F                dec di
00007C75  50                push ax
00007C76  4F                dec di
00007C77  52                push dx
00007C78  53                push bx
00007C79  54                push sp
00007C7A  55                push bp
00007C7B  56                push si
00007C7C  57                push di
00007C7D  58                pop ax
00007C7E  59                pop cx
00007C7F  5A                pop dx
00007C80  0000              add [bx+si],al
00007C82  0000              add [bx+si],al
00007C84  0000              add [bx+si],al
00007C86  0000              add [bx+si],al
00007C88  0000              add [bx+si],al
00007C8A  0000              add [bx+si],al
00007C8C  0000              add [bx+si],al
00007C8E  0000              add [bx+si],al
00007C90  0000              add [bx+si],al
00007C92  0000              add [bx+si],al
00007C94  0000              add [bx+si],al
00007C96  0000              add [bx+si],al
00007C98  0000              add [bx+si],al
00007C9A  0000              add [bx+si],al
00007C9C  0000              add [bx+si],al
00007C9E  0000              add [bx+si],al
00007CA0  0000              add [bx+si],al
00007CA2  0000              add [bx+si],al
00007CA4  0000              add [bx+si],al
00007CA6  0000              add [bx+si],al
00007CA8  0000              add [bx+si],al
00007CAA  0000              add [bx+si],al
00007CAC  0000              add [bx+si],al
00007CAE  0000              add [bx+si],al
00007CB0  0000              add [bx+si],al
00007CB2  0000              add [bx+si],al
00007CB4  0000              add [bx+si],al
00007CB6  0000              add [bx+si],al
00007CB8  0000              add [bx+si],al
00007CBA  0000              add [bx+si],al
00007CBC  0000              add [bx+si],al
00007CBE  0000              add [bx+si],al
00007CC0  0000              add [bx+si],al
00007CC2  0000              add [bx+si],al
00007CC4  0000              add [bx+si],al
00007CC6  0000              add [bx+si],al
00007CC8  0000              add [bx+si],al
00007CCA  0000              add [bx+si],al
00007CCC  0000              add [bx+si],al
00007CCE  0000              add [bx+si],al
00007CD0  0000              add [bx+si],al
00007CD2  0000              add [bx+si],al
00007CD4  0000              add [bx+si],al
00007CD6  0000              add [bx+si],al
00007CD8  0000              add [bx+si],al
00007CDA  0000              add [bx+si],al
00007CDC  0000              add [bx+si],al
00007CDE  0000              add [bx+si],al
00007CE0  0000              add [bx+si],al
00007CE2  0000              add [bx+si],al
00007CE4  0000              add [bx+si],al
00007CE6  0000              add [bx+si],al
00007CE8  0000              add [bx+si],al
00007CEA  0000              add [bx+si],al
00007CEC  0000              add [bx+si],al
00007CEE  0000              add [bx+si],al
00007CF0  0000              add [bx+si],al
00007CF2  0000              add [bx+si],al
00007CF4  0000              add [bx+si],al
00007CF6  0000              add [bx+si],al
00007CF8  0000              add [bx+si],al
00007CFA  0000              add [bx+si],al
00007CFC  0000              add [bx+si],al
00007CFE  0000              add [bx+si],al
00007D00  0000              add [bx+si],al
00007D02  0000              add [bx+si],al
00007D04  8CC8              mov ax,cs
00007D06  8ED8              mov ds,ax
00007D08  8EC0              mov es,ax
00007D0A  8ED0              mov ss,ax
00007D0C  BC0001            mov sp,0x100
00007D0F  A3D07E            mov [0x7ed0],ax
00007D12  89264C7C          mov [0x7c4c],sp
00007D16  8CC8              mov ax,cs
00007D18  660FB7C0          movzx eax,ax
00007D1C  66C1E004          shl eax,0x4
00007D20  6605B87E0000      add eax,0x7eb8
00007D26  A31E7C            mov [0x7c1e],ax
00007D29  66C1E810          shr eax,0x10
00007D2D  A2207C            mov [0x7c20],al
00007D30  8826237C          mov [0x7c23],ah
00007D34  6631C0            xor eax,eax
00007D37  8CD8              mov ax,ds
00007D39  66C1E004          shl eax,0x4
00007D3D  66054C7C0000      add eax,0x7c4c
00007D43  A3267C            mov [0x7c26],ax
00007D46  66C1E810          shr eax,0x10
00007D4A  A2287C            mov [0x7c28],al
00007D4D  88262B7C          mov [0x7c2b],ah
00007D51  6631C0            xor eax,eax
00007D54  8CD8              mov ax,ds
00007D56  66C1E004          shl eax,0x4
00007D5A  6605847C0000      add eax,0x7c84
00007D60  A32E7C            mov [0x7c2e],ax
00007D63  66C1E810          shr eax,0x10
00007D67  A2307C            mov [0x7c30],al
00007D6A  8826337C          mov [0x7c33],ah
00007D6E  6631C0            xor eax,eax
00007D71  8CC8              mov ax,cs
00007D73  66C1E004          shl eax,0x4
00007D77  6605D87D0000      add eax,0x7dd8
00007D7D  A3167C            mov [0x7c16],ax
00007D80  66C1E810          shr eax,0x10
00007D84  A2187C            mov [0x7c18],al
00007D87  88261B7C          mov [0x7c1b],ah
00007D8B  6631C0            xor eax,eax
00007D8E  8CD8              mov ax,ds
00007D90  66C1E004          shl eax,0x4
00007D94  6605047C0000      add eax,0x7c04
00007D9A  66A3467C          mov [0x7c46],eax
00007D9E  0F0116447C        lgdt [0x7c44]
00007DA3  FA                cli
00007DA4  E492              in al,0x92
00007DA6  0C02              or al,0x2
00007DA8  E692              out 0x92,al
00007DAA  0F20C0            mov eax,cr0
00007DAD  660D01000000      or eax,0x1
00007DB3  0F22C0            mov cr0,eax
00007DB6  66EA000000001000  jmp dword 0x10:0x0
00007DBE  8CC8              mov ax,cs
00007DC0  8ED8              mov ds,ax
00007DC2  8EC0              mov es,ax
00007DC4  8ED0              mov ss,ax
00007DC6  8B264C7C          mov sp,[0x7c4c]
00007DCA  E492              in al,0x92
00007DCC  24FD              and al,0xfd
00007DCE  E692              out 0x92,al
00007DD0  FB                sti
00007DD1  B8004C            mov ax,0x4c00
00007DD4  CD21              int 0x21
00007DD6  0000              add [bx+si],al
00007DD8  66B820008ED8      mov eax,0xd88e0020
00007DDE  66B830008EC0      mov eax,0xc08e0030
00007DE4  66B838008EE8      mov eax,0xe88e0038
00007DEA  66B828008ED0      mov eax,0xd08e0028
00007DF0  BC7F00            mov sp,0x7f
00007DF3  0000              add [bx+si],al
00007DF5  B40C              mov ah,0xc
00007DF7  31F6              xor si,si
00007DF9  31FF              xor di,di
00007DFB  BE0200            mov si,0x2
00007DFE  0000              add [bx+si],al
00007E00  BF4006            mov di,0x640
00007E03  0000              add [bx+si],al
00007E05  FC                cld
00007E06  AC                lodsb
00007E07  84C0              test al,al
00007E09  740F              jz 0x7e1a
00007E0B  65668907          mov [gs:bx],eax
00007E0F  81C70200          add di,0x2
00007E13  0000              add [bx+si],al
00007E15  E9ECFF            jmp word 0x7e04
00007E18  FF                db 0xff
00007E19  FF                db 0xff
00007E1A  E88100            call word 0x7e9e
00007E1D  0000              add [bx+si],al
00007E1F  E81100            call word 0x7e33
00007E22  0000              add [bx+si],al
00007E24  E82400            call word 0x7e4b
00007E27  0000              add [bx+si],al
00007E29  E80700            call word 0x7e33
00007E2C  0000              add [bx+si],al
00007E2E  EA00000000        jmp word 0x0:0x0
00007E33  1800              sbb [bx+si],al
00007E35  31F6              xor si,si
00007E37  B90800            mov cx,0x8
00007E3A  0000              add [bx+si],al
00007E3C  268A06E826        mov al,[es:0x26e8]
00007E41  0000              add [bx+si],al
00007E43  0046E2            add [bp-0x1e],al
00007E46  F5                cmc
00007E47  E85400            call word 0x7e9e
00007E4A  0000              add [bx+si],al
00007E4C  C3                ret
00007E4D  56                push si
00007E4E  57                push di
00007E4F  31F6              xor si,si
00007E51  31FF              xor di,di
00007E53  BE1A00            mov si,0x1a
00007E56  0000              add [bx+si],al
00007E58  FC                cld
00007E59  AC                lodsb
00007E5A  84C0              test al,al
00007E5C  7409              jz 0x7e67
00007E5E  268807            mov [es:bx],al
00007E61  47                inc di
00007E62  E9F2FF            jmp word 0x7e57
00007E65  FF                db 0xff
00007E66  FF5F5E            call word far [bx+0x5e]
00007E69  C3                ret
00007E6A  51                push cx
00007E6B  52                push dx
00007E6C  B40C              mov ah,0xc
00007E6E  88C2              mov dl,al
00007E70  C0E804            shr al,0x4
00007E73  B90200            mov cx,0x2
00007E76  0000              add [bx+si],al
00007E78  240F              and al,0xf
00007E7A  3C09              cmp al,0x9
00007E7C  7707              ja 0x7e85
00007E7E  0430              add al,0x30
00007E80  E90400            jmp word 0x7e87
00007E83  0000              add [bx+si],al
00007E85  2C0A              sub al,0xa
00007E87  0441              add al,0x41
00007E89  65668907          mov [gs:bx],eax
00007E8D  81C70200          add di,0x2
00007E91  0000              add [bx+si],al
00007E93  88D0              mov al,dl
00007E95  E2E1              loop 0x7e78
00007E97  81C70200          add di,0x2
00007E9B  0000              add [bx+si],al
00007E9D  5A                pop dx
00007E9E  59                pop cx
00007E9F  C3                ret
00007EA0  50                push ax
00007EA1  53                push bx
00007EA2  89F8              mov ax,di
00007EA4  B3A0              mov bl,0xa0
00007EA6  F6F3              div bl
00007EA8  25FF00            and ax,0xff
00007EAB  0000              add [bx+si],al
00007EAD  40                inc ax
00007EAE  B3A0              mov bl,0xa0
00007EB0  F6E3              mul bl
00007EB2  89C7              mov di,ax
00007EB4  5B                pop bx
00007EB5  58                pop ax
00007EB6  C3                ret
00007EB7  00B80800          add [bx+si+0x8],bh
00007EBB  8ED8              mov ds,ax
00007EBD  8EC0              mov es,ax
00007EBF  8EE0              mov fs,ax
00007EC1  8EE8              mov gs,ax
00007EC3  8ED0              mov ss,ax
00007EC5  0F20C0            mov eax,cr0
00007EC8  24FE              and al,0xfe
00007ECA  0F22C0            mov cr0,eax
00007ECD  EABE7D0000        jmp word 0x0:0x7dbe
00007ED2  0000              add [bx+si],al
00007ED4  0000              add [bx+si],al
00007ED6  0000              add [bx+si],al
00007ED8  0000              add [bx+si],al
00007EDA  0000              add [bx+si],al
00007EDC  0000              add [bx+si],al
00007EDE  0000              add [bx+si],al
00007EE0  0000              add [bx+si],al
00007EE2  0000              add [bx+si],al
00007EE4  0000              add [bx+si],al
00007EE6  0000              add [bx+si],al
00007EE8  0000              add [bx+si],al
00007EEA  0000              add [bx+si],al
00007EEC  0000              add [bx+si],al
00007EEE  0000              add [bx+si],al
00007EF0  0000              add [bx+si],al
00007EF2  0000              add [bx+si],al
00007EF4  0000              add [bx+si],al
00007EF6  0000              add [bx+si],al
00007EF8  0000              add [bx+si],al
00007EFA  0000              add [bx+si],al
00007EFC  0000              add [bx+si],al
00007EFE  0000              add [bx+si],al
00007F00  0000              add [bx+si],al
00007F02  0000              add [bx+si],al
00007F04  0000              add [bx+si],al
00007F06  0000              add [bx+si],al
00007F08  0000              add [bx+si],al
00007F0A  0000              add [bx+si],al
00007F0C  0000              add [bx+si],al
00007F0E  0000              add [bx+si],al
00007F10  0000              add [bx+si],al
00007F12  0000              add [bx+si],al
00007F14  0000              add [bx+si],al
00007F16  0000              add [bx+si],al
00007F18  0000              add [bx+si],al
00007F1A  0000              add [bx+si],al
00007F1C  0000              add [bx+si],al
00007F1E  0000              add [bx+si],al
00007F20  0000              add [bx+si],al
00007F22  0000              add [bx+si],al
00007F24  0000              add [bx+si],al
00007F26  0000              add [bx+si],al
00007F28  0000              add [bx+si],al
00007F2A  0000              add [bx+si],al
00007F2C  0000              add [bx+si],al
00007F2E  0000              add [bx+si],al
00007F30  0000              add [bx+si],al
00007F32  0000              add [bx+si],al
00007F34  0000              add [bx+si],al
00007F36  0000              add [bx+si],al
00007F38  0000              add [bx+si],al
00007F3A  0000              add [bx+si],al
00007F3C  0000              add [bx+si],al
00007F3E  0000              add [bx+si],al
00007F40  0000              add [bx+si],al
00007F42  0000              add [bx+si],al
00007F44  0000              add [bx+si],al
00007F46  0000              add [bx+si],al
00007F48  0000              add [bx+si],al
00007F4A  0000              add [bx+si],al
00007F4C  0000              add [bx+si],al
00007F4E  0000              add [bx+si],al
00007F50  0000              add [bx+si],al
00007F52  0000              add [bx+si],al
00007F54  0000              add [bx+si],al
00007F56  0000              add [bx+si],al
00007F58  0000              add [bx+si],al
00007F5A  0000              add [bx+si],al
00007F5C  0000              add [bx+si],al
00007F5E  0000              add [bx+si],al
00007F60  0000              add [bx+si],al
00007F62  0000              add [bx+si],al
00007F64  0000              add [bx+si],al
00007F66  0000              add [bx+si],al
00007F68  0000              add [bx+si],al
00007F6A  0000              add [bx+si],al
00007F6C  0000              add [bx+si],al
00007F6E  0000              add [bx+si],al
00007F70  0000              add [bx+si],al
00007F72  0000              add [bx+si],al
00007F74  0000              add [bx+si],al
00007F76  0000              add [bx+si],al
00007F78  0000              add [bx+si],al
00007F7A  0000              add [bx+si],al
00007F7C  0000              add [bx+si],al
00007F7E  0000              add [bx+si],al
00007F80  0000              add [bx+si],al
00007F82  0000              add [bx+si],al
00007F84  0000              add [bx+si],al
00007F86  0000              add [bx+si],al
00007F88  0000              add [bx+si],al
00007F8A  0000              add [bx+si],al
00007F8C  0000              add [bx+si],al
00007F8E  0000              add [bx+si],al
00007F90  0000              add [bx+si],al
00007F92  0000              add [bx+si],al
00007F94  0000              add [bx+si],al
00007F96  0000              add [bx+si],al
00007F98  0000              add [bx+si],al
00007F9A  0000              add [bx+si],al
00007F9C  0000              add [bx+si],al
00007F9E  0000              add [bx+si],al
00007FA0  0000              add [bx+si],al
00007FA2  0000              add [bx+si],al
00007FA4  0000              add [bx+si],al
00007FA6  0000              add [bx+si],al
00007FA8  0000              add [bx+si],al
00007FAA  0000              add [bx+si],al
00007FAC  0000              add [bx+si],al
00007FAE  0000              add [bx+si],al
00007FB0  0000              add [bx+si],al
00007FB2  0000              add [bx+si],al
00007FB4  0000              add [bx+si],al
00007FB6  0000              add [bx+si],al
00007FB8  0000              add [bx+si],al
00007FBA  0000              add [bx+si],al
00007FBC  0000              add [bx+si],al
00007FBE  0000              add [bx+si],al
00007FC0  0000              add [bx+si],al
00007FC2  0000              add [bx+si],al
00007FC4  0000              add [bx+si],al
00007FC6  0000              add [bx+si],al
00007FC8  0000              add [bx+si],al
00007FCA  0000              add [bx+si],al
00007FCC  0000              add [bx+si],al
00007FCE  0000              add [bx+si],al
00007FD0  0000              add [bx+si],al
00007FD2  0000              add [bx+si],al
00007FD4  0000              add [bx+si],al
00007FD6  0000              add [bx+si],al
00007FD8  0000              add [bx+si],al
00007FDA  0000              add [bx+si],al
00007FDC  0000              add [bx+si],al
00007FDE  0000              add [bx+si],al
00007FE0  0000              add [bx+si],al
00007FE2  0000              add [bx+si],al
00007FE4  0000              add [bx+si],al
00007FE6  0000              add [bx+si],al
00007FE8  0000              add [bx+si],al
00007FEA  0000              add [bx+si],al
00007FEC  0000              add [bx+si],al
00007FEE  0000              add [bx+si],al
00007FF0  0000              add [bx+si],al
00007FF2  0000              add [bx+si],al
00007FF4  0000              add [bx+si],al
00007FF6  0000              add [bx+si],al
00007FF8  0000              add [bx+si],al
00007FFA  0000              add [bx+si],al
00007FFC  0000              add [bx+si],al
00007FFE  0000              add [bx+si],al
00008000  0000              add [bx+si],al
00008002  0000              add [bx+si],al
00008004  0000              add [bx+si],al
00008006  0000              add [bx+si],al
00008008  0000              add [bx+si],al
0000800A  0000              add [bx+si],al
0000800C  0000              add [bx+si],al
0000800E  0000              add [bx+si],al
00008010  0000              add [bx+si],al
00008012  0000              add [bx+si],al
00008014  0000              add [bx+si],al
00008016  0000              add [bx+si],al
00008018  0000              add [bx+si],al
0000801A  0000              add [bx+si],al
0000801C  0000              add [bx+si],al
0000801E  0000              add [bx+si],al
00008020  0000              add [bx+si],al
00008022  0000              add [bx+si],al
00008024  0000              add [bx+si],al
00008026  0000              add [bx+si],al
00008028  0000              add [bx+si],al
0000802A  0000              add [bx+si],al
0000802C  0000              add [bx+si],al
0000802E  0000              add [bx+si],al
00008030  0000              add [bx+si],al
00008032  0000              add [bx+si],al
00008034  0000              add [bx+si],al
00008036  0000              add [bx+si],al
00008038  0000              add [bx+si],al
0000803A  0000              add [bx+si],al
0000803C  0000              add [bx+si],al
0000803E  0000              add [bx+si],al
00008040  0000              add [bx+si],al
00008042  0000              add [bx+si],al
00008044  0000              add [bx+si],al
00008046  0000              add [bx+si],al
00008048  0000              add [bx+si],al
0000804A  0000              add [bx+si],al
0000804C  0000              add [bx+si],al
0000804E  0000              add [bx+si],al
00008050  0000              add [bx+si],al
00008052  0000              add [bx+si],al
00008054  0000              add [bx+si],al
00008056  0000              add [bx+si],al
00008058  0000              add [bx+si],al
0000805A  0000              add [bx+si],al
0000805C  0000              add [bx+si],al
0000805E  0000              add [bx+si],al
00008060  0000              add [bx+si],al
00008062  0000              add [bx+si],al
00008064  0000              add [bx+si],al
00008066  0000              add [bx+si],al
00008068  0000              add [bx+si],al
0000806A  0000              add [bx+si],al
0000806C  0000              add [bx+si],al
0000806E  0000              add [bx+si],al
00008070  0000              add [bx+si],al
00008072  0000              add [bx+si],al
00008074  0000              add [bx+si],al
00008076  0000              add [bx+si],al
00008078  0000              add [bx+si],al
0000807A  0000              add [bx+si],al
0000807C  0000              add [bx+si],al
0000807E  0000              add [bx+si],al
00008080  0000              add [bx+si],al
00008082  0000              add [bx+si],al
00008084  0000              add [bx+si],al
00008086  0000              add [bx+si],al
00008088  0000              add [bx+si],al
0000808A  0000              add [bx+si],al
0000808C  0000              add [bx+si],al
0000808E  0000              add [bx+si],al
00008090  0000              add [bx+si],al
00008092  0000              add [bx+si],al
00008094  0000              add [bx+si],al
00008096  0000              add [bx+si],al
00008098  0000              add [bx+si],al
0000809A  0000              add [bx+si],al
0000809C  0000              add [bx+si],al
0000809E  0000              add [bx+si],al
000080A0  0000              add [bx+si],al
000080A2  0000              add [bx+si],al
000080A4  0000              add [bx+si],al
000080A6  0000              add [bx+si],al
000080A8  0000              add [bx+si],al
000080AA  0000              add [bx+si],al
000080AC  0000              add [bx+si],al
000080AE  0000              add [bx+si],al
000080B0  0000              add [bx+si],al
000080B2  0000              add [bx+si],al
000080B4  0000              add [bx+si],al
000080B6  55                push bp
000080B7  AA                stosb
00007C00  E97D01            jmp word 0x7d80
00007C03  0000              add [bx+si],al
00007C05  0000              add [bx+si],al
00007C07  0000              add [bx+si],al
00007C09  0000              add [bx+si],al
00007C0B  00FF              add bh,bh
00007C0D  FF00              inc word [bx+si]
00007C0F  0000              add [bx+si],al
00007C11  92                xchg ax,dx
00007C12  0000              add [bx+si],al
00007C14  DE00              fiadd word [bx+si]
00007C16  0000              add [bx+si],al
00007C18  00984000          add [bx+si+0x40],bl
00007C1C  FF                db 0xff
00007C1D  FF00              inc word [bx+si]
00007C1F  0000              add [bx+si],al
00007C21  98                cbw
00007C22  0000              add [bx+si],al
00007C24  3200              xor al,[bx+si]
00007C26  0000              add [bx+si],al
00007C28  00920000          add [bp+si+0x0],dl
00007C2C  FF00              inc word [bx+si]
00007C2E  0000              add [bx+si],al
00007C30  00934000          add [bp+di+0x40],dl
00007C34  FF                db 0xff
00007C35  FF00              inc word [bx+si]
00007C37  0005              add [di],al
00007C39  92                xchg ax,dx
00007C3A  0000              add [bx+si],al
00007C3C  FF                db 0xff
00007C3D  FF00              inc word [bx+si]
00007C3F  800B92            or byte [bp+di],0x92
00007C42  0000              add [bx+si],al
00007C44  3F                aas
00007C45  0000              add [bx+si],al
00007C47  0000              add [bx+si],al
00007C49  0000              add [bx+si],al
00007C4B  0000              add [bx+si],al
00007C4D  00496E            add [bx+di+0x6e],cl
00007C50  207072            and [bx+si+0x72],dh
00007C53  6F                outsw
00007C54  7465              jz 0x7cbb
00007C56  637420            arpl [si+0x20],si
00007C59  6D                insw
00007C5A  6F                outsw
00007C5B  6465206E6F        and [gs:bp+0x6f],ch
00007C60  7720              ja 0x7c82
00007C62  5E                pop si
00007C63  5F                pop di
00007C64  5E                pop si
00007C65  41                inc cx
00007C66  42                inc dx
00007C67  43                inc bx
00007C68  44                inc sp
00007C69  45                inc bp
00007C6A  46                inc si
00007C6B  47                inc di
00007C6C  48                dec ax
00007C6D  49                dec cx
00007C6E  4A                dec dx
00007C6F  4B                dec bx
00007C70  4C                dec sp
00007C71  4D                dec bp
00007C72  4E                dec si
00007C73  4F                dec di
00007C74  50                push ax
00007C75  4F                dec di
00007C76  52                push dx
00007C77  53                push bx
00007C78  54                push sp
00007C79  55                push bp
00007C7A  56                push si
00007C7B  57                push di
00007C7C  58                pop ax
00007C7D  59                pop cx
00007C7E  5A                pop dx
00007C7F  0000              add [bx+si],al
00007C81  0000              add [bx+si],al
00007C83  0000              add [bx+si],al
00007C85  0000              add [bx+si],al
00007C87  0000              add [bx+si],al
00007C89  0000              add [bx+si],al
00007C8B  0000              add [bx+si],al
00007C8D  0000              add [bx+si],al
00007C8F  0000              add [bx+si],al
00007C91  0000              add [bx+si],al
00007C93  0000              add [bx+si],al
00007C95  0000              add [bx+si],al
00007C97  0000              add [bx+si],al
00007C99  0000              add [bx+si],al
00007C9B  0000              add [bx+si],al
00007C9D  0000              add [bx+si],al
00007C9F  0000              add [bx+si],al
00007CA1  0000              add [bx+si],al
00007CA3  0000              add [bx+si],al
00007CA5  0000              add [bx+si],al
00007CA7  0000              add [bx+si],al
00007CA9  0000              add [bx+si],al
00007CAB  0000              add [bx+si],al
00007CAD  0000              add [bx+si],al
00007CAF  0000              add [bx+si],al
00007CB1  0000              add [bx+si],al
00007CB3  0000              add [bx+si],al
00007CB5  0000              add [bx+si],al
00007CB7  0000              add [bx+si],al
00007CB9  0000              add [bx+si],al
00007CBB  0000              add [bx+si],al
00007CBD  0000              add [bx+si],al
00007CBF  0000              add [bx+si],al
00007CC1  0000              add [bx+si],al
00007CC3  0000              add [bx+si],al
00007CC5  0000              add [bx+si],al
00007CC7  0000              add [bx+si],al
00007CC9  0000              add [bx+si],al
00007CCB  0000              add [bx+si],al
00007CCD  0000              add [bx+si],al
00007CCF  0000              add [bx+si],al
00007CD1  0000              add [bx+si],al
00007CD3  0000              add [bx+si],al
00007CD5  0000              add [bx+si],al
00007CD7  0000              add [bx+si],al
00007CD9  0000              add [bx+si],al
00007CDB  0000              add [bx+si],al
00007CDD  0000              add [bx+si],al
00007CDF  0000              add [bx+si],al
00007CE1  0000              add [bx+si],al
00007CE3  0000              add [bx+si],al
00007CE5  0000              add [bx+si],al
00007CE7  0000              add [bx+si],al
00007CE9  0000              add [bx+si],al
00007CEB  0000              add [bx+si],al
00007CED  0000              add [bx+si],al
00007CEF  0000              add [bx+si],al
00007CF1  0000              add [bx+si],al
00007CF3  0000              add [bx+si],al
00007CF5  0000              add [bx+si],al
00007CF7  0000              add [bx+si],al
00007CF9  0000              add [bx+si],al
00007CFB  0000              add [bx+si],al
00007CFD  0000              add [bx+si],al
00007CFF  0000              add [bx+si],al
00007D01  0000              add [bx+si],al
00007D03  0000              add [bx+si],al
00007D05  0000              add [bx+si],al
00007D07  0000              add [bx+si],al
00007D09  0000              add [bx+si],al
00007D0B  0000              add [bx+si],al
00007D0D  0000              add [bx+si],al
00007D0F  0000              add [bx+si],al
00007D11  0000              add [bx+si],al
00007D13  0000              add [bx+si],al
00007D15  0000              add [bx+si],al
00007D17  0000              add [bx+si],al
00007D19  0000              add [bx+si],al
00007D1B  0000              add [bx+si],al
00007D1D  0000              add [bx+si],al
00007D1F  0000              add [bx+si],al
00007D21  0000              add [bx+si],al
00007D23  0000              add [bx+si],al
00007D25  0000              add [bx+si],al
00007D27  0000              add [bx+si],al
00007D29  0000              add [bx+si],al
00007D2B  0000              add [bx+si],al
00007D2D  0000              add [bx+si],al
00007D2F  0000              add [bx+si],al
00007D31  0000              add [bx+si],al
00007D33  0000              add [bx+si],al
00007D35  0000              add [bx+si],al
00007D37  0000              add [bx+si],al
00007D39  0000              add [bx+si],al
00007D3B  0000              add [bx+si],al
00007D3D  0000              add [bx+si],al
00007D3F  0000              add [bx+si],al
00007D41  0000              add [bx+si],al
00007D43  0000              add [bx+si],al
00007D45  0000              add [bx+si],al
00007D47  0000              add [bx+si],al
00007D49  0000              add [bx+si],al
00007D4B  0000              add [bx+si],al
00007D4D  0000              add [bx+si],al
00007D4F  0000              add [bx+si],al
00007D51  0000              add [bx+si],al
00007D53  0000              add [bx+si],al
00007D55  0000              add [bx+si],al
00007D57  0000              add [bx+si],al
00007D59  0000              add [bx+si],al
00007D5B  0000              add [bx+si],al
00007D5D  0000              add [bx+si],al
00007D5F  0000              add [bx+si],al
00007D61  0000              add [bx+si],al
00007D63  0000              add [bx+si],al
00007D65  0000              add [bx+si],al
00007D67  0000              add [bx+si],al
00007D69  0000              add [bx+si],al
00007D6B  0000              add [bx+si],al
00007D6D  0000              add [bx+si],al
00007D6F  0000              add [bx+si],al
00007D71  0000              add [bx+si],al
00007D73  0000              add [bx+si],al
00007D75  0000              add [bx+si],al
00007D77  0000              add [bx+si],al
00007D79  0000              add [bx+si],al
00007D7B  0000              add [bx+si],al
00007D7D  0000              add [bx+si],al
00007D7F  008CC88E          add [si-0x7138],cl
00007D83  D88EC08E          fmul dword [bp-0x7140]
00007D87  D0BC0001          sar byte [si+0x100],1
00007D8B  A34C7F            mov [0x7f4c],ax
00007D8E  89264C7C          mov [0x7c4c],sp
00007D92  8CC8              mov ax,cs
00007D94  660FB7C0          movzx eax,ax
00007D98  66C1E004          shl eax,0x4
00007D9C  6605347F0000      add eax,0x7f34
00007DA2  A31E7C            mov [0x7c1e],ax
00007DA5  66C1E810          shr eax,0x10
00007DA9  A2207C            mov [0x7c20],al
00007DAC  8826237C          mov [0x7c23],ah
00007DB0  6631C0            xor eax,eax
00007DB3  8CD8              mov ax,ds
00007DB5  66C1E004          shl eax,0x4
00007DB9  66054C7C0000      add eax,0x7c4c
00007DBF  A3267C            mov [0x7c26],ax
00007DC2  66C1E810          shr eax,0x10
00007DC6  A2287C            mov [0x7c28],al
00007DC9  88262B7C          mov [0x7c2b],ah
00007DCD  6631C0            xor eax,eax
00007DD0  8CD8              mov ax,ds
00007DD2  66C1E004          shl eax,0x4
00007DD6  6605807C0000      add eax,0x7c80
00007DDC  A32E7C            mov [0x7c2e],ax
00007DDF  66C1E810          shr eax,0x10
00007DE3  A2307C            mov [0x7c30],al
00007DE6  8826337C          mov [0x7c33],ah
00007DEA  6631C0            xor eax,eax
00007DED  8CC8              mov ax,cs
00007DEF  66C1E004          shl eax,0x4
00007DF3  6605547E0000      add eax,0x7e54
00007DF9  A3167C            mov [0x7c16],ax
00007DFC  66C1E810          shr eax,0x10
00007E00  A2187C            mov [0x7c18],al
00007E03  88261B7C          mov [0x7c1b],ah
00007E07  6631C0            xor eax,eax
00007E0A  8CD8              mov ax,ds
00007E0C  66C1E004          shl eax,0x4
00007E10  6605047C0000      add eax,0x7c04
00007E16  66A3467C          mov [0x7c46],eax
00007E1A  0F0116447C        lgdt [0x7c44]
00007E1F  FA                cli
00007E20  E492              in al,0x92
00007E22  0C02              or al,0x2
00007E24  E692              out 0x92,al
00007E26  0F20C0            mov eax,cr0
00007E29  660D01000000      or eax,0x1
00007E2F  0F22C0            mov cr0,eax
00007E32  66EA000000001000  jmp dword 0x10:0x0
00007E3A  8CC8              mov ax,cs
00007E3C  8ED8              mov ds,ax
00007E3E  8EC0              mov es,ax
00007E40  8ED0              mov ss,ax
00007E42  8B264C7C          mov sp,[0x7c4c]
00007E46  E492              in al,0x92
00007E48  24FD              and al,0xfd
00007E4A  E692              out 0x92,al
00007E4C  FB                sti
00007E4D  B8004C            mov ax,0x4c00
00007E50  CD21              int 0x21
00007E52  0000              add [bx+si],al
00007E54  66B820008ED8      mov eax,0xd88e0020
00007E5A  66B830008EC0      mov eax,0xc08e0030
00007E60  66B838008EE8      mov eax,0xe88e0038
00007E66  66B828008ED0      mov eax,0xd08e0028
00007E6C  BCFF00            mov sp,0xff
00007E6F  0000              add [bx+si],al
00007E71  B40C              mov ah,0xc
00007E73  31F6              xor si,si
00007E75  31FF              xor di,di
00007E77  BE0200            mov si,0x2
00007E7A  0000              add [bx+si],al
00007E7C  BF4806            mov di,0x648
00007E7F  0000              add [bx+si],al
00007E81  FC                cld
00007E82  AC                lodsb
00007E83  84C0              test al,al
00007E85  740F              jz 0x7e96
00007E87  65668907          mov [gs:bx],eax
00007E8B  81C70200          add di,0x2
00007E8F  0000              add [bx+si],al
00007E91  E9ECFF            jmp word 0x7e80
00007E94  FF                db 0xff
00007E95  FF                db 0xff
00007E96  E88100            call word 0x7f1a
00007E99  0000              add [bx+si],al
00007E9B  E81100            call word 0x7eaf
00007E9E  0000              add [bx+si],al
00007EA0  E82400            call word 0x7ec7
00007EA3  0000              add [bx+si],al
00007EA5  E80700            call word 0x7eaf
00007EA8  0000              add [bx+si],al
00007EAA  EA00000000        jmp word 0x0:0x0
00007EAF  1800              sbb [bx+si],al
00007EB1  31F6              xor si,si
00007EB3  B90800            mov cx,0x8
00007EB6  0000              add [bx+si],al
00007EB8  268A06E826        mov al,[es:0x26e8]
00007EBD  0000              add [bx+si],al
00007EBF  0046E2            add [bp-0x1e],al
00007EC2  F5                cmc
00007EC3  E85400            call word 0x7f1a
00007EC6  0000              add [bx+si],al
00007EC8  C3                ret
00007EC9  56                push si
00007ECA  57                push di
00007ECB  31F6              xor si,si
00007ECD  31FF              xor di,di
00007ECF  BE1900            mov si,0x19
00007ED2  0000              add [bx+si],al
00007ED4  FC                cld
00007ED5  AC                lodsb
00007ED6  84C0              test al,al
00007ED8  7409              jz 0x7ee3
00007EDA  268807            mov [es:bx],al
00007EDD  47                inc di
00007EDE  E9F2FF            jmp word 0x7ed3
00007EE1  FF                db 0xff
00007EE2  FF5F5E            call word far [bx+0x5e]
00007EE5  C3                ret
00007EE6  51                push cx
00007EE7  52                push dx
00007EE8  B40C              mov ah,0xc
00007EEA  88C2              mov dl,al
00007EEC  C0E804            shr al,0x4
00007EEF  B90200            mov cx,0x2
00007EF2  0000              add [bx+si],al
00007EF4  240F              and al,0xf
00007EF6  3C09              cmp al,0x9
00007EF8  7707              ja 0x7f01
00007EFA  0430              add al,0x30
00007EFC  E90400            jmp word 0x7f03
00007EFF  0000              add [bx+si],al
00007F01  2C0A              sub al,0xa
00007F03  0441              add al,0x41
00007F05  65668907          mov [gs:bx],eax
00007F09  81C70200          add di,0x2
00007F0D  0000              add [bx+si],al
00007F0F  88D0              mov al,dl
00007F11  E2E1              loop 0x7ef4
00007F13  81C70200          add di,0x2
00007F17  0000              add [bx+si],al
00007F19  5A                pop dx
00007F1A  59                pop cx
00007F1B  C3                ret
00007F1C  50                push ax
00007F1D  53                push bx
00007F1E  89F8              mov ax,di
00007F20  B3A0              mov bl,0xa0
00007F22  F6F3              div bl
00007F24  25FF00            and ax,0xff
00007F27  0000              add [bx+si],al
00007F29  40                inc ax
00007F2A  B3A0              mov bl,0xa0
00007F2C  F6E3              mul bl
00007F2E  89C7              mov di,ax
00007F30  5B                pop bx
00007F31  58                pop ax
00007F32  C3                ret
00007F33  00B80800          add [bx+si+0x8],bh
00007F37  8ED8              mov ds,ax
00007F39  8EC0              mov es,ax
00007F3B  8EE0              mov fs,ax
00007F3D  8EE8              mov gs,ax
00007F3F  8ED0              mov ss,ax
00007F41  0F20C0            mov eax,cr0
00007F44  24FE              and al,0xfe
00007F46  0F22C0            mov cr0,eax
00007F49  EA3A7E0000        jmp word 0x0:0x7e3a
00007F4E  0000              add [bx+si],al
00007F50  0000              add [bx+si],al
00007F52  0000              add [bx+si],al
00007F54  0000              add [bx+si],al
00007F56  0000              add [bx+si],al
00007F58  0000              add [bx+si],al
00007F5A  0000              add [bx+si],al
00007F5C  0000              add [bx+si],al
00007F5E  0000              add [bx+si],al
00007F60  0000              add [bx+si],al
00007F62  0000              add [bx+si],al
00007F64  0000              add [bx+si],al
00007F66  0000              add [bx+si],al
00007F68  0000              add [bx+si],al
00007F6A  0000              add [bx+si],al
00007F6C  0000              add [bx+si],al
00007F6E  0000              add [bx+si],al
00007F70  0000              add [bx+si],al
00007F72  0000              add [bx+si],al
00007F74  0000              add [bx+si],al
00007F76  0000              add [bx+si],al
00007F78  0000              add [bx+si],al
00007F7A  0000              add [bx+si],al
00007F7C  0000              add [bx+si],al
00007F7E  0000              add [bx+si],al
00007F80  0000              add [bx+si],al
00007F82  0000              add [bx+si],al
00007F84  0000              add [bx+si],al
00007F86  0000              add [bx+si],al
00007F88  0000              add [bx+si],al
00007F8A  0000              add [bx+si],al
00007F8C  0000              add [bx+si],al
00007F8E  0000              add [bx+si],al
00007F90  0000              add [bx+si],al
00007F92  0000              add [bx+si],al
00007F94  0000              add [bx+si],al
00007F96  0000              add [bx+si],al
00007F98  0000              add [bx+si],al
00007F9A  0000              add [bx+si],al
00007F9C  0000              add [bx+si],al
00007F9E  0000              add [bx+si],al
00007FA0  0000              add [bx+si],al
00007FA2  0000              add [bx+si],al
00007FA4  0000              add [bx+si],al
00007FA6  0000              add [bx+si],al
00007FA8  0000              add [bx+si],al
00007FAA  0000              add [bx+si],al
00007FAC  0000              add [bx+si],al
00007FAE  0000              add [bx+si],al
00007FB0  0000              add [bx+si],al
00007FB2  0000              add [bx+si],al
00007FB4  0000              add [bx+si],al
00007FB6  0000              add [bx+si],al
00007FB8  0000              add [bx+si],al
00007FBA  0000              add [bx+si],al
00007FBC  0000              add [bx+si],al
00007FBE  0000              add [bx+si],al
00007FC0  0000              add [bx+si],al
00007FC2  0000              add [bx+si],al
00007FC4  0000              add [bx+si],al
00007FC6  0000              add [bx+si],al
00007FC8  0000              add [bx+si],al
00007FCA  0000              add [bx+si],al
00007FCC  0000              add [bx+si],al
00007FCE  0000              add [bx+si],al
00007FD0  0000              add [bx+si],al
00007FD2  0000              add [bx+si],al
00007FD4  0000              add [bx+si],al
00007FD6  0000              add [bx+si],al
00007FD8  0000              add [bx+si],al
00007FDA  0000              add [bx+si],al
00007FDC  0000              add [bx+si],al
00007FDE  0000              add [bx+si],al
00007FE0  0000              add [bx+si],al
00007FE2  0000              add [bx+si],al
00007FE4  0000              add [bx+si],al
00007FE6  0000              add [bx+si],al
00007FE8  0000              add [bx+si],al
00007FEA  0000              add [bx+si],al
00007FEC  0000              add [bx+si],al
00007FEE  0000              add [bx+si],al
00007FF0  0000              add [bx+si],al
00007FF2  0000              add [bx+si],al
00007FF4  0000              add [bx+si],al
00007FF6  0000              add [bx+si],al
00007FF8  0000              add [bx+si],al
00007FFA  0000              add [bx+si],al
00007FFC  0000              add [bx+si],al
00007FFE  0000              add [bx+si],al
00008000  0000              add [bx+si],al
00008002  0000              add [bx+si],al
00008004  0000              add [bx+si],al
00008006  0000              add [bx+si],al
00008008  0000              add [bx+si],al
0000800A  0000              add [bx+si],al
0000800C  0000              add [bx+si],al
0000800E  0000              add [bx+si],al
00008010  0000              add [bx+si],al
00008012  0000              add [bx+si],al
00008014  0000              add [bx+si],al
00008016  0000              add [bx+si],al
00008018  0000              add [bx+si],al
0000801A  0000              add [bx+si],al
0000801C  0000              add [bx+si],al
0000801E  0000              add [bx+si],al
00008020  0000              add [bx+si],al
00008022  0000              add [bx+si],al
00008024  0000              add [bx+si],al
00008026  0000              add [bx+si],al
00008028  0000              add [bx+si],al
0000802A  0000              add [bx+si],al
0000802C  0000              add [bx+si],al
0000802E  0000              add [bx+si],al
00008030  0000              add [bx+si],al
00008032  0000              add [bx+si],al
00008034  0000              add [bx+si],al
00008036  0000              add [bx+si],al
00008038  0000              add [bx+si],al
0000803A  0000              add [bx+si],al
0000803C  0000              add [bx+si],al
0000803E  0000              add [bx+si],al
00008040  0000              add [bx+si],al
00008042  0000              add [bx+si],al
00008044  0000              add [bx+si],al
00008046  0000              add [bx+si],al
00008048  0000              add [bx+si],al
0000804A  0000              add [bx+si],al
0000804C  0000              add [bx+si],al
0000804E  0000              add [bx+si],al
00008050  0000              add [bx+si],al
00008052  0000              add [bx+si],al
00008054  0000              add [bx+si],al
00008056  0000              add [bx+si],al
00008058  0000              add [bx+si],al
0000805A  0000              add [bx+si],al
0000805C  0000              add [bx+si],al
0000805E  0000              add [bx+si],al
00008060  0000              add [bx+si],al
00008062  0000              add [bx+si],al
00008064  0000              add [bx+si],al
00008066  0000              add [bx+si],al
00008068  0000              add [bx+si],al
0000806A  0000              add [bx+si],al
0000806C  0000              add [bx+si],al
0000806E  0000              add [bx+si],al
00008070  0000              add [bx+si],al
00008072  0000              add [bx+si],al
00008074  0000              add [bx+si],al
00008076  0000              add [bx+si],al
00008078  0000              add [bx+si],al
0000807A  0000              add [bx+si],al
0000807C  0000              add [bx+si],al
0000807E  0000              add [bx+si],al
00008080  0000              add [bx+si],al
00008082  0000              add [bx+si],al
00008084  0000              add [bx+si],al
00008086  0000              add [bx+si],al
00008088  0000              add [bx+si],al
0000808A  0000              add [bx+si],al
0000808C  0000              add [bx+si],al
0000808E  0000              add [bx+si],al
00008090  0000              add [bx+si],al
00008092  0000              add [bx+si],al
00008094  0000              add [bx+si],al
00008096  0000              add [bx+si],al
00008098  0000              add [bx+si],al
0000809A  0000              add [bx+si],al
0000809C  0000              add [bx+si],al
0000809E  0000              add [bx+si],al
000080A0  0000              add [bx+si],al
000080A2  0000              add [bx+si],al
000080A4  0000              add [bx+si],al
000080A6  0000              add [bx+si],al
000080A8  0000              add [bx+si],al
000080AA  0000              add [bx+si],al
000080AC  0000              add [bx+si],al
000080AE  0000              add [bx+si],al
000080B0  0000              add [bx+si],al
000080B2  0000              add [bx+si],al
000080B4  0000              add [bx+si],al
000080B6  0000              add [bx+si],al
000080B8  0000              add [bx+si],al
000080BA  0000              add [bx+si],al
000080BC  0000              add [bx+si],al
000080BE  0000              add [bx+si],al
000080C0  0000              add [bx+si],al
000080C2  0000              add [bx+si],al
000080C4  0000              add [bx+si],al
000080C6  0000              add [bx+si],al
000080C8  0000              add [bx+si],al
000080CA  0000              add [bx+si],al
000080CC  0000              add [bx+si],al
000080CE  0000              add [bx+si],al
000080D0  0000              add [bx+si],al
000080D2  0000              add [bx+si],al
000080D4  0000              add [bx+si],al
000080D6  0000              add [bx+si],al
000080D8  0000              add [bx+si],al
000080DA  0000              add [bx+si],al
000080DC  0000              add [bx+si],al
000080DE  0000              add [bx+si],al
000080E0  0000              add [bx+si],al
000080E2  0000              add [bx+si],al
000080E4  0000              add [bx+si],al
000080E6  0000              add [bx+si],al
000080E8  0000              add [bx+si],al
000080EA  0000              add [bx+si],al
000080EC  0000              add [bx+si],al
000080EE  0000              add [bx+si],al
000080F0  0000              add [bx+si],al
000080F2  0000              add [bx+si],al
000080F4  0000              add [bx+si],al
000080F6  0000              add [bx+si],al
000080F8  0000              add [bx+si],al
000080FA  0000              add [bx+si],al
000080FC  0000              add [bx+si],al
000080FE  0000              add [bx+si],al
00008100  0000              add [bx+si],al
00008102  0000              add [bx+si],al
00008104  0000              add [bx+si],al
00008106  0000              add [bx+si],al
00008108  0000              add [bx+si],al
0000810A  0000              add [bx+si],al
0000810C  0000              add [bx+si],al
0000810E  0000              add [bx+si],al
00008110  0000              add [bx+si],al
00008112  0000              add [bx+si],al
00008114  0000              add [bx+si],al
00008116  0000              add [bx+si],al
00008118  0000              add [bx+si],al
0000811A  0000              add [bx+si],al
0000811C  0000              add [bx+si],al
0000811E  0000              add [bx+si],al
00008120  0000              add [bx+si],al
00008122  0000              add [bx+si],al
00008124  0000              add [bx+si],al
00008126  0000              add [bx+si],al
00008128  0000              add [bx+si],al
0000812A  0000              add [bx+si],al
0000812C  0000              add [bx+si],al
0000812E  0000              add [bx+si],al
00008130  0000              add [bx+si],al
00008132  55                push bp
00008133  AA                stosb
